target datalayout = "e-m:e-p270:32:32-p271:32:32-p272:64:64-i64:64-i128:128-f80:128-n8:16:32:64-S128"
target triple = "x86_64-pc-linux-gnu"

%struct.grep_expr = type { i32, i32, %union.anon }
%union.anon = type { %struct.anon }
%struct.anon = type { ptr, ptr }

; Function Attrs: nounwind uwtable
define internal void @free_pattern_expr(ptr noundef %0) #0 {
  %2 = alloca ptr, align 8
  store ptr %0, ptr %2, align 8, !tbaa !62
  %3 = load ptr, ptr %2, align 8, !tbaa !62
  %4 = getelementptr inbounds nuw %struct.grep_expr, ptr %3, i32 0, i32 0
  %5 = load i32, ptr %4, align 8, !tbaa !76
  switch i32 %5, label %20 [
    i32 3, label %6
    i32 0, label %6
    i32 1, label %7
    i32 2, label %11
    i32 4, label %11
  ]

6:                                                ; preds = %1, %1
  br label %20

7:                                                ; preds = %1
  %8 = load ptr, ptr %2, align 8, !tbaa !62
  %9 = getelementptr inbounds nuw %struct.grep_expr, ptr %8, i32 0, i32 2
  %10 = load ptr, ptr %9, align 8, !tbaa !36
  call void @free_pattern_expr(ptr noundef %10)
  br label %20

11:                                               ; preds = %1, %1
  %12 = load ptr, ptr %2, align 8, !tbaa !62
  %13 = getelementptr inbounds nuw %struct.grep_expr, ptr %12, i32 0, i32 2
  %14 = getelementptr inbounds nuw %struct.anon, ptr %13, i32 0, i32 0
  %15 = load ptr, ptr %14, align 8, !tbaa !36
  call void @free_pattern_expr(ptr noundef %15)
  %16 = load ptr, ptr %2, align 8, !tbaa !62
  %17 = getelementptr inbounds nuw %struct.grep_expr, ptr %16, i32 0, i32 2
  %18 = getelementptr inbounds nuw %struct.anon, ptr %17, i32 0, i32 1
  %19 = load ptr, ptr %18, align 8, !tbaa !36
  call void @free_pattern_expr(ptr noundef %19)
  br label %20

20:                                               ; preds = %1, %11, %7, %6
  %21 = load ptr, ptr %2, align 8, !tbaa !62
  call void @free(ptr noundef %21) #11
  ret void
}