; Function Attrs: nounwind uwtable
define internal fastcc void @free_pattern_expr(ptr noundef captures(none) %0) unnamed_addr #0 {
  %2 = load i32, ptr %0, align 8, !tbaa !55
  switch i32 %2, label %8 [
    i32 4, label %3
    i32 2, label %3
    i32 1, label %.sink.split
  ]

3:                                                ; preds = %1, %1
  %4 = getelementptr inbounds nuw i8, ptr %0, i64 8
  %5 = load ptr, ptr %4, align 8, !tbaa !23
  tail call fastcc void @free_pattern_expr(ptr noundef %5)
  br label %.sink.split

.sink.split:                                      ; preds = %1, %3
  %.sink = phi i64 [ 16, %3 ], [ 8, %1 ]
  %6 = getelementptr inbounds nuw i8, ptr %0, i64 %.sink
  %7 = load ptr, ptr %6, align 8, !tbaa !23
  tail call fastcc void @free_pattern_expr(ptr noundef %7)
  br label %8

8:                                                ; preds = %.sink.split, %1
  tail call void @free(ptr noundef nonnull %0) #18
  ret void
}